target datalayout = "e-m:e-p270:32:32-p271:32:32-p272:64:64-i64:64-i128:128-f80:128-n8:16:32:64-S128"
target triple = "x86_64-pc-linux-gnu"

%"struct.faiss::InvertedListScanner" = type { ptr, i64, i8, i8, ptr, i64 }
%"struct.faiss::(anonymous namespace)::IVFFlatScanner.17" = type { %"struct.faiss::InvertedListScanner", i64, ptr }

; Function Attrs: inlinehint mustprogress nounwind uwtable
define linkonce_odr noundef zeroext i1 @_ZN5faiss4CMaxIflE4cmp2Effll(float noundef %0, float noundef %1, i64 noundef %2, i64 noundef %3) #1 comdat align 2 {
  %5 = alloca float, align 4
  %6 = alloca float, align 4
  %7 = alloca i64, align 8
  %8 = alloca i64, align 8
  store float %0, ptr %5, align 4, !tbaa !65
  store float %1, ptr %6, align 4, !tbaa !65
  store i64 %2, ptr %7, align 8, !tbaa !9
  store i64 %3, ptr %8, align 8, !tbaa !9
  %9 = load float, ptr %5, align 4, !tbaa !65
  %10 = load float, ptr %6, align 4, !tbaa !65
  %11 = fcmp ogt float %9, %10
  br i1 %11, label %22, label %12

12:                                               ; preds = %4
  %13 = load float, ptr %5, align 4, !tbaa !65
  %14 = load float, ptr %6, align 4, !tbaa !65
  %15 = fcmp oeq float %13, %14
  br i1 %15, label %16, label %20

16:                                               ; preds = %12
  %17 = load i64, ptr %7, align 8, !tbaa !9
  %18 = load i64, ptr %8, align 8, !tbaa !9
  %19 = icmp sgt i64 %17, %18
  br label %20

20:                                               ; preds = %16, %12
  %21 = phi i1 [ false, %12 ], [ %19, %16 ]
  br label %22

22:                                               ; preds = %20, %4
  %23 = phi i1 [ true, %4 ], [ %21, %20 ]
  ret i1 %23
}

; Function Attrs: inlinehint mustprogress uwtable
define linkonce_odr void @_ZN5faiss16heap_replace_topINS_4CMaxIflEEEEvmPNT_1TEPNS3_2TIES4_S6_(i64 noundef %0, ptr noundef %1, ptr noundef %2, float noundef %3, i64 noundef %4) #18 comdat {
  %6 = alloca i64, align 8
  %7 = alloca ptr, align 8
  %8 = alloca ptr, align 8
  %9 = alloca float, align 4
  %10 = alloca i64, align 8
  %11 = alloca i64, align 8
  %12 = alloca i64, align 8
  %13 = alloca i64, align 8
  store i64 %0, ptr %6, align 8, !tbaa !9
  store ptr %1, ptr %7, align 8, !tbaa !13
  store ptr %2, ptr %8, align 8, !tbaa !43
  store float %3, ptr %9, align 4, !tbaa !65
  store i64 %4, ptr %10, align 8, !tbaa !9
  %14 = load ptr, ptr %7, align 8, !tbaa !13
  %15 = getelementptr inbounds float, ptr %14, i32 -1
  store ptr %15, ptr %7, align 8, !tbaa !13
  %16 = load ptr, ptr %8, align 8, !tbaa !43
  %17 = getelementptr inbounds i64, ptr %16, i32 -1
  store ptr %17, ptr %8, align 8, !tbaa !43
  call void @llvm.lifetime.start.p0(i64 8, ptr %11) #12
  store i64 1, ptr %11, align 8, !tbaa !9
  call void @llvm.lifetime.start.p0(i64 8, ptr %12) #12
  call void @llvm.lifetime.start.p0(i64 8, ptr %13) #12
  br label %18

18:                                               ; preds = %109, %5
  br label %19

19:                                               ; preds = %18
  %20 = load i64, ptr %11, align 8, !tbaa !9
  %21 = shl i64 %20, 1
  store i64 %21, ptr %12, align 8, !tbaa !9
  %22 = load i64, ptr %12, align 8, !tbaa !9
  %23 = add i64 %22, 1
  store i64 %23, ptr %13, align 8, !tbaa !9
  %24 = load i64, ptr %12, align 8, !tbaa !9
  %25 = load i64, ptr %6, align 8, !tbaa !9
  %26 = icmp ugt i64 %24, %25
  br i1 %26, label %27, label %28

27:                                               ; preds = %19
  br label %110

28:                                               ; preds = %19
  %29 = load i64, ptr %13, align 8, !tbaa !9
  %30 = load i64, ptr %6, align 8, !tbaa !9
  %31 = add i64 %30, 1
  %32 = icmp eq i64 %29, %31
  br i1 %32, label %51, label %33

33:                                               ; preds = %28
  %34 = load ptr, ptr %7, align 8, !tbaa !13
  %35 = load i64, ptr %12, align 8, !tbaa !9
  %36 = getelementptr inbounds nuw float, ptr %34, i64 %35
  %37 = load float, ptr %36, align 4, !tbaa !65
  %38 = load ptr, ptr %7, align 8, !tbaa !13
  %39 = load i64, ptr %13, align 8, !tbaa !9
  %40 = getelementptr inbounds nuw float, ptr %38, i64 %39
  %41 = load float, ptr %40, align 4, !tbaa !65
  %42 = load ptr, ptr %8, align 8, !tbaa !43
  %43 = load i64, ptr %12, align 8, !tbaa !9
  %44 = getelementptr inbounds nuw i64, ptr %42, i64 %43
  %45 = load i64, ptr %44, align 8, !tbaa !9
  %46 = load ptr, ptr %8, align 8, !tbaa !43
  %47 = load i64, ptr %13, align 8, !tbaa !9
  %48 = getelementptr inbounds nuw i64, ptr %46, i64 %47
  %49 = load i64, ptr %48, align 8, !tbaa !9
  %50 = call noundef zeroext i1 @_ZN5faiss4CMaxIflE4cmp2Effll(float noundef %37, float noundef %41, i64 noundef %45, i64 noundef %49)
  br i1 %50, label %51, label %80

51:                                               ; preds = %33, %28
  %52 = load float, ptr %9, align 4, !tbaa !65
  %53 = load ptr, ptr %7, align 8, !tbaa !13
  %54 = load i64, ptr %12, align 8, !tbaa !9
  %55 = getelementptr inbounds nuw float, ptr %53, i64 %54
  %56 = load float, ptr %55, align 4, !tbaa !65
  %57 = load i64, ptr %10, align 8, !tbaa !9
  %58 = load ptr, ptr %8, align 8, !tbaa !43
  %59 = load i64, ptr %12, align 8, !tbaa !9
  %60 = getelementptr inbounds nuw i64, ptr %58, i64 %59
  %61 = load i64, ptr %60, align 8, !tbaa !9
  %62 = call noundef zeroext i1 @_ZN5faiss4CMaxIflE4cmp2Effll(float noundef %52, float noundef %56, i64 noundef %57, i64 noundef %61)
  br i1 %62, label %63, label %64

63:                                               ; preds = %51
  br label %110

64:                                               ; preds = %51
  %65 = load ptr, ptr %7, align 8, !tbaa !13
  %66 = load i64, ptr %12, align 8, !tbaa !9
  %67 = getelementptr inbounds nuw float, ptr %65, i64 %66
  %68 = load float, ptr %67, align 4, !tbaa !65
  %69 = load ptr, ptr %7, align 8, !tbaa !13
  %70 = load i64, ptr %11, align 8, !tbaa !9
  %71 = getelementptr inbounds nuw float, ptr %69, i64 %70
  store float %68, ptr %71, align 4, !tbaa !65
  %72 = load ptr, ptr %8, align 8, !tbaa !43
  %73 = load i64, ptr %12, align 8, !tbaa !9
  %74 = getelementptr inbounds nuw i64, ptr %72, i64 %73
  %75 = load i64, ptr %74, align 8, !tbaa !9
  %76 = load ptr, ptr %8, align 8, !tbaa !43
  %77 = load i64, ptr %11, align 8, !tbaa !9
  %78 = getelementptr inbounds nuw i64, ptr %76, i64 %77
  store i64 %75, ptr %78, align 8, !tbaa !9
  %79 = load i64, ptr %12, align 8, !tbaa !9
  store i64 %79, ptr %11, align 8, !tbaa !9
  br label %109

80:                                               ; preds = %33
  %81 = load float, ptr %9, align 4, !tbaa !65
  %82 = load ptr, ptr %7, align 8, !tbaa !13
  %83 = load i64, ptr %13, align 8, !tbaa !9
  %84 = getelementptr inbounds nuw float, ptr %82, i64 %83
  %85 = load float, ptr %84, align 4, !tbaa !65
  %86 = load i64, ptr %10, align 8, !tbaa !9
  %87 = load ptr, ptr %8, align 8, !tbaa !43
  %88 = load i64, ptr %13, align 8, !tbaa !9
  %89 = getelementptr inbounds nuw i64, ptr %87, i64 %88
  %90 = load i64, ptr %89, align 8, !tbaa !9
  %91 = call noundef zeroext i1 @_ZN5faiss4CMaxIflE4cmp2Effll(float noundef %81, float noundef %85, i64 noundef %86, i64 noundef %90)
  br i1 %91, label %92, label %93

92:                                               ; preds = %80
  br label %110

93:                                               ; preds = %80
  %94 = load ptr, ptr %7, align 8, !tbaa !13
  %95 = load i64, ptr %13, align 8, !tbaa !9
  %96 = getelementptr inbounds nuw float, ptr %94, i64 %95
  %97 = load float, ptr %96, align 4, !tbaa !65
  %98 = load ptr, ptr %7, align 8, !tbaa !13
  %99 = load i64, ptr %11, align 8, !tbaa !9
  %100 = getelementptr inbounds nuw float, ptr %98, i64 %99
  store float %97, ptr %100, align 4, !tbaa !65
  %101 = load ptr, ptr %8, align 8, !tbaa !43
  %102 = load i64, ptr %13, align 8, !tbaa !9
  %103 = getelementptr inbounds nuw i64, ptr %101, i64 %102
  %104 = load i64, ptr %103, align 8, !tbaa !9
  %105 = load ptr, ptr %8, align 8, !tbaa !43
  %106 = load i64, ptr %11, align 8, !tbaa !9
  %107 = getelementptr inbounds nuw i64, ptr %105, i64 %106
  store i64 %104, ptr %107, align 8, !tbaa !9
  %108 = load i64, ptr %13, align 8, !tbaa !9
  store i64 %108, ptr %11, align 8, !tbaa !9
  br label %109

109:                                              ; preds = %93, %64
  br label %18, !llvm.loop !139

110:                                              ; preds = %92, %63, %27
  %111 = load float, ptr %9, align 4, !tbaa !65
  %112 = load ptr, ptr %7, align 8, !tbaa !13
  %113 = load i64, ptr %11, align 8, !tbaa !9
  %114 = getelementptr inbounds nuw float, ptr %112, i64 %113
  store float %111, ptr %114, align 4, !tbaa !65
  %115 = load i64, ptr %10, align 8, !tbaa !9
  %116 = load ptr, ptr %8, align 8, !tbaa !43
  %117 = load i64, ptr %11, align 8, !tbaa !9
  %118 = getelementptr inbounds nuw i64, ptr %116, i64 %117
  store i64 %115, ptr %118, align 8, !tbaa !9
  call void @llvm.lifetime.end.p0(i64 8, ptr %13) #12
  call void @llvm.lifetime.end.p0(i64 8, ptr %12) #12
  call void @llvm.lifetime.end.p0(i64 8, ptr %11) #12
  ret void
}

; Function Attrs: inlinehint mustprogress nounwind uwtable
define linkonce_odr noundef i64 @_ZN5faiss8lo_buildEmm(i64 noundef %0, i64 noundef %1) #1 comdat {
  %3 = alloca i64, align 8
  %4 = alloca i64, align 8
  store i64 %0, ptr %3, align 8, !tbaa !9
  store i64 %1, ptr %4, align 8, !tbaa !9
  %5 = load i64, ptr %3, align 8, !tbaa !9
  %6 = shl i64 %5, 32
  %7 = load i64, ptr %4, align 8, !tbaa !9
  %8 = or i64 %6, %7
  ret i64 %8
}

; Function Attrs: inlinehint mustprogress nounwind uwtable
define linkonce_odr noundef zeroext i1 @_ZN5faiss4CMaxIflE3cmpEff(float noundef %0, float noundef %1) #1 comdat align 2 {
  %3 = alloca float, align 4
  %4 = alloca float, align 4
  store float %0, ptr %3, align 4, !tbaa !65
  store float %1, ptr %4, align 4, !tbaa !65
  %5 = load float, ptr %3, align 4, !tbaa !65
  %6 = load float, ptr %4, align 4, !tbaa !65
  %7 = fcmp ogt float %5, %6
  ret i1 %7
}

; Function Attrs: mustprogress uwtable
define internal noundef i64 @_ZNK5faiss12_GLOBAL__N_114IVFFlatScannerILNS_10MetricTypeE1ENS_4CMaxIflEELb0EE10scan_codesEmPKhPKlPfPlm(ptr noundef nonnull align 8 dereferenceable(56) %0, i64 noundef %1, ptr noundef %2, ptr noundef %3, ptr noundef %4, ptr noundef %5, i64 noundef %6) unnamed_addr #3 align 2 {
  %8 = alloca ptr, align 8
  %9 = alloca i64, align 8
  %10 = alloca ptr, align 8
  %11 = alloca ptr, align 8
  %12 = alloca ptr, align 8
  %13 = alloca ptr, align 8
  %14 = alloca i64, align 8
  %15 = alloca ptr, align 8
  %16 = alloca i64, align 8
  %17 = alloca i64, align 8
  %18 = alloca ptr, align 8
  %19 = alloca float, align 4
  %20 = alloca i64, align 8
  store ptr %0, ptr %8, align 8, !tbaa !150
  store i64 %1, ptr %9, align 8, !tbaa !9
  store ptr %2, ptr %10, align 8, !tbaa !11
  store ptr %3, ptr %11, align 8, !tbaa !43
  store ptr %4, ptr %12, align 8, !tbaa !13
  store ptr %5, ptr %13, align 8, !tbaa !43
  store i64 %6, ptr %14, align 8, !tbaa !9
  %21 = load ptr, ptr %8, align 8
  call void @llvm.lifetime.start.p0(i64 8, ptr %15) #12
  %22 = load ptr, ptr %10, align 8, !tbaa !11
  store ptr %22, ptr %15, align 8, !tbaa !13
  call void @llvm.lifetime.start.p0(i64 8, ptr %16) #12
  store i64 0, ptr %16, align 8, !tbaa !9
  call void @llvm.lifetime.start.p0(i64 8, ptr %17) #12
  store i64 0, ptr %17, align 8, !tbaa !9
  br label %23

23:                                               ; preds = %70, %7
  %24 = load i64, ptr %17, align 8, !tbaa !9
  %25 = load i64, ptr %9, align 8, !tbaa !9
  %26 = icmp ult i64 %24, %25
  br i1 %26, label %28, label %27

27:                                               ; preds = %23
  call void @llvm.lifetime.end.p0(i64 8, ptr %17) #12
  br label %73

28:                                               ; preds = %23
  call void @llvm.lifetime.start.p0(i64 8, ptr %18) #12
  %29 = load ptr, ptr %15, align 8, !tbaa !13
  %30 = getelementptr inbounds nuw %"struct.faiss::(anonymous namespace)::IVFFlatScanner.17", ptr %21, i32 0, i32 1
  %31 = load i64, ptr %30, align 8, !tbaa !152
  %32 = load i64, ptr %17, align 8, !tbaa !9
  %33 = mul i64 %31, %32
  %34 = getelementptr inbounds nuw float, ptr %29, i64 %33
  store ptr %34, ptr %18, align 8, !tbaa !13
  call void @llvm.lifetime.start.p0(i64 4, ptr %19) #12
  %35 = getelementptr inbounds nuw %"struct.faiss::(anonymous namespace)::IVFFlatScanner.17", ptr %21, i32 0, i32 2
  %36 = load ptr, ptr %35, align 8, !tbaa !157
  %37 = load ptr, ptr %18, align 8, !tbaa !13
  %38 = getelementptr inbounds nuw %"struct.faiss::(anonymous namespace)::IVFFlatScanner.17", ptr %21, i32 0, i32 1
  %39 = load i64, ptr %38, align 8, !tbaa !152
  %40 = call noundef float @_ZN5faiss10fvec_L2sqrEPKfS1_m(ptr noundef %36, ptr noundef %37, i64 noundef %39)
  store float %40, ptr %19, align 4, !tbaa !65
  %41 = load ptr, ptr %12, align 8, !tbaa !13
  %42 = getelementptr inbounds float, ptr %41, i64 0
  %43 = load float, ptr %42, align 4, !tbaa !65
  %44 = load float, ptr %19, align 4, !tbaa !65
  %45 = call noundef zeroext i1 @_ZN5faiss4CMaxIflE3cmpEff(float noundef %43, float noundef %44)
  br i1 %45, label %46, label %69

46:                                               ; preds = %28
  call void @llvm.lifetime.start.p0(i64 8, ptr %20) #12
  %47 = getelementptr inbounds nuw %"struct.faiss::InvertedListScanner", ptr %21, i32 0, i32 3
  %48 = load i8, ptr %47, align 1, !tbaa !127, !range !46, !noundef !47
  %49 = trunc i8 %48 to i1
  br i1 %49, label %50, label %55

50:                                               ; preds = %46
  %51 = getelementptr inbounds nuw %"struct.faiss::InvertedListScanner", ptr %21, i32 0, i32 1
  %52 = load i64, ptr %51, align 8, !tbaa !126
  %53 = load i64, ptr %17, align 8, !tbaa !9
  %54 = call noundef i64 @_ZN5faiss8lo_buildEmm(i64 noundef %52, i64 noundef %53)
  br label %60

55:                                               ; preds = %46
  %56 = load ptr, ptr %11, align 8, !tbaa !43
  %57 = load i64, ptr %17, align 8, !tbaa !9
  %58 = getelementptr inbounds nuw i64, ptr %56, i64 %57
  %59 = load i64, ptr %58, align 8, !tbaa !9
  br label %60

60:                                               ; preds = %55, %50
  %61 = phi i64 [ %54, %50 ], [ %59, %55 ]
  store i64 %61, ptr %20, align 8, !tbaa !9
  %62 = load i64, ptr %14, align 8, !tbaa !9
  %63 = load ptr, ptr %12, align 8, !tbaa !13
  %64 = load ptr, ptr %13, align 8, !tbaa !43
  %65 = load float, ptr %19, align 4, !tbaa !65
  %66 = load i64, ptr %20, align 8, !tbaa !9
  call void @_ZN5faiss16heap_replace_topINS_4CMaxIflEEEEvmPNT_1TEPNS3_2TIES4_S6_(i64 noundef %62, ptr noundef %63, ptr noundef %64, float noundef %65, i64 noundef %66)
  %67 = load i64, ptr %16, align 8, !tbaa !9
  %68 = add i64 %67, 1
  store i64 %68, ptr %16, align 8, !tbaa !9
  call void @llvm.lifetime.end.p0(i64 8, ptr %20) #12
  br label %69

69:                                               ; preds = %60, %28
  call void @llvm.lifetime.end.p0(i64 4, ptr %19) #12
  call void @llvm.lifetime.end.p0(i64 8, ptr %18) #12
  br label %70

70:                                               ; preds = %69
  %71 = load i64, ptr %17, align 8, !tbaa !9
  %72 = add i64 %71, 1
  store i64 %72, ptr %17, align 8, !tbaa !9
  br label %23, !llvm.loop !158

73:                                               ; preds = %27
  %74 = load i64, ptr %16, align 8, !tbaa !9
  call void @llvm.lifetime.end.p0(i64 8, ptr %16) #12
  call void @llvm.lifetime.end.p0(i64 8, ptr %15) #12
  ret i64 %74
}